target datalayout = "e-m:e-p270:32:32-p271:32:32-p272:64:64-i64:64-i128:128-f80:128-n8:16:32:64-S128"
target triple = "x86_64-pc-linux-gnu"

%"struct.duckdb_zstd::ZSTD_customMem" = type { ptr, ptr, ptr }
%"struct.duckdb_zstd::ZSTD_frameParameters" = type { i32, i32, i32 }
%"struct.duckdb_zstd::ZSTD_compressionParameters" = type { i32, i32, i32, i32, i32, i32, i32 }
%"struct.duckdb_zstd::ZSTD_CCtx_params_s" = type { i32, %"struct.duckdb_zstd::ZSTD_compressionParameters", %"struct.duckdb_zstd::ZSTD_frameParameters", i32, i32, i64, i32, i32, i32, i32, i64, i32, i32, %"struct.duckdb_zstd::ldmParams_t", i32, i32, i32, i32, i32, i32, i32, i32, %"struct.duckdb_zstd::ZSTD_customMem", i32, i32, ptr, ptr, i64, i32 }
%"struct.duckdb_zstd::ldmParams_t" = type { i32, i32, i32, i32, i32, i32 }

@_ZN11duckdb_zstdL16ZSTD_defaultCMemE = internal constant %"struct.duckdb_zstd::ZSTD_customMem" zeroinitializer, align 8

; Function Attrs: mustprogress nounwind uwtable
define noundef i64 @_ZN11duckdb_zstd20ZSTD_CCtxParams_initEPNS_18ZSTD_CCtx_params_sEi(ptr noundef %0, i32 noundef %1) #0 {
  %3 = alloca i64, align 8
  %4 = alloca ptr, align 8
  %5 = alloca i32, align 4
  store ptr %0, ptr %4, align 8, !tbaa !96
  store i32 %1, ptr %5, align 4, !tbaa !79
  br label %6

6:                                                ; preds = %2
  %7 = load ptr, ptr %4, align 8, !tbaa !96
  %8 = icmp ne ptr %7, null
  br i1 %8, label %18, label %9

9:                                                ; preds = %6
  br label %10

10:                                               ; preds = %9
  br label %11

11:                                               ; preds = %10
  br label %12

12:                                               ; preds = %11
  br label %13

13:                                               ; preds = %12
  br label %14

14:                                               ; preds = %13
  br label %15

15:                                               ; preds = %14
  br label %16

16:                                               ; preds = %15
  br label %17

17:                                               ; preds = %16
  store i64 -1, ptr %3, align 8
  br label %27

18:                                               ; preds = %6
  br label %19

19:                                               ; preds = %18
  %20 = load ptr, ptr %4, align 8, !tbaa !96
  call void @llvm.memset.p0.i64(ptr align 8 %20, i8 0, i64 216, i1 false)
  %21 = load i32, ptr %5, align 4, !tbaa !79
  %22 = load ptr, ptr %4, align 8, !tbaa !96
  %23 = getelementptr inbounds nuw %"struct.duckdb_zstd::ZSTD_CCtx_params_s", ptr %22, i32 0, i32 3
  store i32 %21, ptr %23, align 4, !tbaa !98
  %24 = load ptr, ptr %4, align 8, !tbaa !96
  %25 = getelementptr inbounds nuw %"struct.duckdb_zstd::ZSTD_CCtx_params_s", ptr %24, i32 0, i32 2
  %26 = getelementptr inbounds nuw %"struct.duckdb_zstd::ZSTD_frameParameters", ptr %25, i32 0, i32 0
  store i32 1, ptr %26, align 8, !tbaa !99
  store i64 0, ptr %3, align 8
  br label %27

27:                                               ; preds = %19, %17
  %28 = load i64, ptr %3, align 8
  ret i64 %28
}

; Function Attrs: inlinehint mustprogress uwtable
define internal noundef ptr @_ZN11duckdb_zstdL17ZSTD_customCallocEmNS_14ZSTD_customMemE(i64 noundef %0, ptr noundef byval(%"struct.duckdb_zstd::ZSTD_customMem") align 8 %1) #4 {
  %3 = alloca ptr, align 8
  %4 = alloca i64, align 8
  %5 = alloca ptr, align 8
  store i64 %0, ptr %4, align 8, !tbaa !3
  %6 = getelementptr inbounds nuw %"struct.duckdb_zstd::ZSTD_customMem", ptr %1, i32 0, i32 0
  %7 = load ptr, ptr %6, align 8, !tbaa !10
  %8 = icmp ne ptr %7, null
  br i1 %8, label %9, label %19

9:                                                ; preds = %2
  call void @llvm.lifetime.start.p0(i64 8, ptr %5) #16
  %10 = getelementptr inbounds nuw %"struct.duckdb_zstd::ZSTD_customMem", ptr %1, i32 0, i32 0
  %11 = load ptr, ptr %10, align 8, !tbaa !10
  %12 = getelementptr inbounds nuw %"struct.duckdb_zstd::ZSTD_customMem", ptr %1, i32 0, i32 2
  %13 = load ptr, ptr %12, align 8, !tbaa !15
  %14 = load i64, ptr %4, align 8, !tbaa !3
  %15 = call noundef ptr %11(ptr noundef %13, i64 noundef %14)
  store ptr %15, ptr %5, align 8, !tbaa !8
  %16 = load ptr, ptr %5, align 8, !tbaa !8
  %17 = load i64, ptr %4, align 8, !tbaa !3
  call void @llvm.memset.p0.i64(ptr align 1 %16, i8 0, i64 %17, i1 false)
  %18 = load ptr, ptr %5, align 8, !tbaa !8
  store ptr %18, ptr %3, align 8
  call void @llvm.lifetime.end.p0(i64 8, ptr %5) #16
  br label %22

19:                                               ; preds = %2
  %20 = load i64, ptr %4, align 8, !tbaa !3
  %21 = call noalias ptr @calloc(i64 noundef 1, i64 noundef %20) #19
  store ptr %21, ptr %3, align 8
  br label %22

22:                                               ; preds = %19, %9
  %23 = load ptr, ptr %3, align 8
  ret ptr %23
}

; Function Attrs: mustprogress uwtable
define internal noundef ptr @_ZN11duckdb_zstdL30ZSTD_createCCtxParams_advancedENS_14ZSTD_customMemE(ptr noundef byval(%"struct.duckdb_zstd::ZSTD_customMem") align 8 %0) #2 {
  %2 = alloca ptr, align 8
  %3 = alloca ptr, align 8
  %4 = alloca i32, align 4
  %5 = alloca %"struct.duckdb_zstd::ZSTD_customMem", align 8
  call void @llvm.lifetime.start.p0(i64 8, ptr %3) #16
  %6 = getelementptr inbounds nuw %"struct.duckdb_zstd::ZSTD_customMem", ptr %0, i32 0, i32 0
  %7 = load ptr, ptr %6, align 8, !tbaa !10
  %8 = icmp ne ptr %7, null
  %9 = xor i1 %8, true
  %10 = zext i1 %9 to i32
  %11 = getelementptr inbounds nuw %"struct.duckdb_zstd::ZSTD_customMem", ptr %0, i32 0, i32 1
  %12 = load ptr, ptr %11, align 8, !tbaa !12
  %13 = icmp ne ptr %12, null
  %14 = xor i1 %13, true
  %15 = zext i1 %14 to i32
  %16 = xor i32 %10, %15
  %17 = icmp ne i32 %16, 0
  br i1 %17, label %18, label %19

18:                                               ; preds = %1
  store ptr null, ptr %2, align 8
  store i32 1, ptr %4, align 4
  br label %30

19:                                               ; preds = %1
  call void @llvm.memcpy.p0.p0.i64(ptr align 8 %5, ptr align 8 %0, i64 24, i1 false), !tbaa.struct !7
  %20 = call noundef ptr @_ZN11duckdb_zstdL17ZSTD_customCallocEmNS_14ZSTD_customMemE(i64 noundef 216, ptr noundef byval(%"struct.duckdb_zstd::ZSTD_customMem") align 8 %5)
  store ptr %20, ptr %3, align 8, !tbaa !96
  %21 = load ptr, ptr %3, align 8, !tbaa !96
  %22 = icmp ne ptr %21, null
  br i1 %22, label %24, label %23

23:                                               ; preds = %19
  store ptr null, ptr %2, align 8
  store i32 1, ptr %4, align 4
  br label %30

24:                                               ; preds = %19
  %25 = load ptr, ptr %3, align 8, !tbaa !96
  %26 = call noundef i64 @_ZN11duckdb_zstd20ZSTD_CCtxParams_initEPNS_18ZSTD_CCtx_params_sEi(ptr noundef %25, i32 noundef 3)
  %27 = load ptr, ptr %3, align 8, !tbaa !96
  %28 = getelementptr inbounds nuw %"struct.duckdb_zstd::ZSTD_CCtx_params_s", ptr %27, i32 0, i32 22
  call void @llvm.memcpy.p0.p0.i64(ptr align 8 %28, ptr align 8 %0, i64 24, i1 false), !tbaa.struct !7
  %29 = load ptr, ptr %3, align 8, !tbaa !96
  store ptr %29, ptr %2, align 8
  store i32 1, ptr %4, align 4
  br label %30

30:                                               ; preds = %24, %23, %18
  call void @llvm.lifetime.end.p0(i64 8, ptr %3) #16
  %31 = load ptr, ptr %2, align 8
  ret ptr %31
}

; Function Attrs: mustprogress uwtable
define noundef ptr @_ZN11duckdb_zstd21ZSTD_createCCtxParamsEv() #2 {
  %1 = alloca %"struct.duckdb_zstd::ZSTD_customMem", align 8
  call void @llvm.memcpy.p0.p0.i64(ptr align 8 %1, ptr align 8 @_ZN11duckdb_zstdL16ZSTD_defaultCMemE, i64 24, i1 false), !tbaa.struct !7
  %2 = call noundef ptr @_ZN11duckdb_zstdL30ZSTD_createCCtxParams_advancedENS_14ZSTD_customMemE(ptr noundef byval(%"struct.duckdb_zstd::ZSTD_customMem") align 8 %1)
  ret ptr %2
}