; Function Attrs: mustprogress nofree nounwind willreturn memory(write, argmem: none, inaccessiblemem: readwrite) uwtable
define noalias noundef ptr @_ZN11duckdb_zstd21ZSTD_createCCtxParamsEv() local_unnamed_addr #7 {
_ZN11duckdb_zstdL17ZSTD_customCallocEmNS_14ZSTD_customMemE.exit.i:
  %0 = tail call noalias dereferenceable_or_null(216) ptr @calloc(i64 noundef 1, i64 noundef 216) #29
  %.not7.i = icmp eq ptr %0, null
  br i1 %.not7.i, label %_ZN11duckdb_zstdL30ZSTD_createCCtxParams_advancedENS_14ZSTD_customMemE.exit, label %_ZN11duckdb_zstd20ZSTD_CCtxParams_initEPNS_18ZSTD_CCtx_params_sEi.exit.i

_ZN11duckdb_zstd20ZSTD_CCtxParams_initEPNS_18ZSTD_CCtx_params_sEi.exit.i: ; preds = %_ZN11duckdb_zstdL17ZSTD_customCallocEmNS_14ZSTD_customMemE.exit.i
  %1 = getelementptr inbounds nuw i8, ptr %0, i64 44
  store i32 3, ptr %1, align 4, !tbaa !57
  %2 = getelementptr inbounds nuw i8, ptr %0, i64 32
  store i32 1, ptr %2, align 8, !tbaa !58
  br label %_ZN11duckdb_zstdL30ZSTD_createCCtxParams_advancedENS_14ZSTD_customMemE.exit

_ZN11duckdb_zstdL30ZSTD_createCCtxParams_advancedENS_14ZSTD_customMemE.exit: ; preds = %_ZN11duckdb_zstdL17ZSTD_customCallocEmNS_14ZSTD_customMemE.exit.i, %_ZN11duckdb_zstd20ZSTD_CCtxParams_initEPNS_18ZSTD_CCtx_params_sEi.exit.i
  ret ptr %0
}